target datalayout = "e-m:e-p270:32:32-p271:32:32-p272:64:64-i64:64-i128:128-f80:128-n8:16:32:64-S128"
target triple = "x86_64-pc-linux-gnu"

%struct.DdManager = type { %struct.DdNode, ptr, ptr, ptr, ptr, ptr, ptr, ptr, i32, i32, double, double, double, i32, i32, i32, i32, i32, i32, ptr, ptr, %struct.DdSubtable, i32, i32, i32, i32, i32, i32, i32, double, i32, i32, i32, ptr, i64, double, i32, ptr, ptr, ptr, ptr, ptr, ptr, ptr, i32, ptr, ptr, ptr, ptr, ptr, ptr, i32, i32, i32, double, i32, i32, i32, i32, double, double, i32, i32, i32, i32, i32, i32, i32, i32, i32, ptr, ptr, i32, i32, i32, i32, i32, i32, ptr, ptr, ptr, ptr, ptr, ptr, ptr, ptr, i32, i64, i64, i64, i32, i64, i64, double, double, double, double, double, double, i32, ptr, ptr, i64 }
%struct.DdNode = type { i32, i32, ptr, %union.anon, i64 }
%union.anon = type { %struct.DdChildren }
%struct.DdChildren = type { ptr, ptr }
%struct.DdSubtable = type { ptr, i32, i32, i32, i32, i32, i32, i32, i32, i32, i32, i32 }

@.str = private unnamed_addr constant [41 x i8] c"Error: Can only abstract positive cubes\0A\00", align 1

; Function Attrs: nounwind uwtable
define internal i32 @bddCheckPositiveCube(ptr noundef %0, ptr noundef %1) #0 {
  %3 = alloca i32, align 4
  %4 = alloca ptr, align 8
  %5 = alloca ptr, align 8
  store ptr %0, ptr %4, align 8, !tbaa !3
  store ptr %1, ptr %5, align 8, !tbaa !8
  %6 = load ptr, ptr %5, align 8, !tbaa !8
  %7 = ptrtoint ptr %6 to i64
  %8 = and i64 %7, 1
  %9 = trunc i64 %8 to i32
  %10 = icmp ne i32 %9, 0
  br i1 %10, label %11, label %12

11:                                               ; preds = %2
  store i32 0, ptr %3, align 4
  br label %45

12:                                               ; preds = %2
  %13 = load ptr, ptr %5, align 8, !tbaa !8
  %14 = load ptr, ptr %4, align 8, !tbaa !3
  %15 = getelementptr inbounds nuw %struct.DdManager, ptr %14, i32 0, i32 1
  %16 = load ptr, ptr %15, align 8, !tbaa !31
  %17 = icmp eq ptr %13, %16
  br i1 %17, label %18, label %19

18:                                               ; preds = %12
  store i32 1, ptr %3, align 4
  br label %45

19:                                               ; preds = %12
  %20 = load ptr, ptr %5, align 8, !tbaa !8
  %21 = getelementptr inbounds nuw %struct.DdNode, ptr %20, i32 0, i32 0
  %22 = load i32, ptr %21, align 8, !tbaa !32
  %23 = icmp eq i32 %22, 2147483647
  br i1 %23, label %24, label %25

24:                                               ; preds = %19
  store i32 0, ptr %3, align 4
  br label %45

25:                                               ; preds = %19
  %26 = load ptr, ptr %5, align 8, !tbaa !8
  %27 = getelementptr inbounds nuw %struct.DdNode, ptr %26, i32 0, i32 3
  %28 = getelementptr inbounds nuw %struct.DdChildren, ptr %27, i32 0, i32 1
  %29 = load ptr, ptr %28, align 8, !tbaa !33
  %30 = load ptr, ptr %4, align 8, !tbaa !3
  %31 = getelementptr inbounds nuw %struct.DdManager, ptr %30, i32 0, i32 1
  %32 = load ptr, ptr %31, align 8, !tbaa !31
  %33 = ptrtoint ptr %32 to i64
  %34 = xor i64 %33, 1
  %35 = inttoptr i64 %34 to ptr
  %36 = icmp eq ptr %29, %35
  br i1 %36, label %37, label %44

37:                                               ; preds = %25
  %38 = load ptr, ptr %4, align 8, !tbaa !3
  %39 = load ptr, ptr %5, align 8, !tbaa !8
  %40 = getelementptr inbounds nuw %struct.DdNode, ptr %39, i32 0, i32 3
  %41 = getelementptr inbounds nuw %struct.DdChildren, ptr %40, i32 0, i32 0
  %42 = load ptr, ptr %41, align 8, !tbaa !33
  %43 = call i32 @bddCheckPositiveCube(ptr noundef %38, ptr noundef %42)
  store i32 %43, ptr %3, align 4
  br label %45

44:                                               ; preds = %25
  store i32 0, ptr %3, align 4
  br label %45

45:                                               ; preds = %44, %37, %24, %18, %11
  %46 = load i32, ptr %3, align 4
  ret i32 %46
}

; Function Attrs: nounwind uwtable
define ptr @Cudd_bddXorExistAbstract(ptr noundef %0, ptr noundef %1, ptr noundef %2, ptr noundef %3) #0 {
  %5 = alloca ptr, align 8
  %6 = alloca ptr, align 8
  %7 = alloca ptr, align 8
  %8 = alloca ptr, align 8
  %9 = alloca ptr, align 8
  %10 = alloca ptr, align 8
  %11 = alloca i32, align 4
  store ptr %0, ptr %6, align 8, !tbaa !3
  store ptr %1, ptr %7, align 8, !tbaa !8
  store ptr %2, ptr %8, align 8, !tbaa !8
  store ptr %3, ptr %9, align 8, !tbaa !8
  call void @llvm.lifetime.start.p0(i64 8, ptr %10) #4
  %12 = load ptr, ptr %6, align 8, !tbaa !3
  %13 = load ptr, ptr %9, align 8, !tbaa !8
  %14 = call i32 @bddCheckPositiveCube(ptr noundef %12, ptr noundef %13)
  %15 = icmp eq i32 %14, 0
  br i1 %15, label %16, label %23

16:                                               ; preds = %4
  %17 = load ptr, ptr %6, align 8, !tbaa !3
  %18 = getelementptr inbounds nuw %struct.DdManager, ptr %17, i32 0, i32 85
  %19 = load ptr, ptr %18, align 8, !tbaa !10
  %20 = call i32 (ptr, ptr, ...) @fprintf(ptr noundef %19, ptr noundef @.str) #4
  %21 = load ptr, ptr %6, align 8, !tbaa !3
  %22 = getelementptr inbounds nuw %struct.DdManager, ptr %21, i32 0, i32 86
  store i32 4, ptr %22, align 8, !tbaa !27
  store ptr null, ptr %5, align 8
  store i32 1, ptr %11, align 4
  br label %39

23:                                               ; preds = %4
  br label %24

24:                                               ; preds = %32, %23
  %25 = load ptr, ptr %6, align 8, !tbaa !3
  %26 = getelementptr inbounds nuw %struct.DdManager, ptr %25, i32 0, i32 55
  store i32 0, ptr %26, align 8, !tbaa !28
  %27 = load ptr, ptr %6, align 8, !tbaa !3
  %28 = load ptr, ptr %7, align 8, !tbaa !8
  %29 = load ptr, ptr %8, align 8, !tbaa !8
  %30 = load ptr, ptr %9, align 8, !tbaa !8
  %31 = call ptr @cuddBddXorExistAbstractRecur(ptr noundef %27, ptr noundef %28, ptr noundef %29, ptr noundef %30)
  store ptr %31, ptr %10, align 8, !tbaa !8
  br label %32

32:                                               ; preds = %24
  %33 = load ptr, ptr %6, align 8, !tbaa !3
  %34 = getelementptr inbounds nuw %struct.DdManager, ptr %33, i32 0, i32 55
  %35 = load i32, ptr %34, align 8, !tbaa !28
  %36 = icmp eq i32 %35, 1
  br i1 %36, label %24, label %37, !llvm.loop !39

37:                                               ; preds = %32
  %38 = load ptr, ptr %10, align 8, !tbaa !8
  store ptr %38, ptr %5, align 8
  store i32 1, ptr %11, align 4
  br label %39

39:                                               ; preds = %37, %16
  call void @llvm.lifetime.end.p0(i64 8, ptr %10) #4
  %40 = load ptr, ptr %5, align 8
  ret ptr %40
}