; Function Attrs: nounwind uwtable
define ptr @Cudd_bddXorExistAbstract(ptr noundef %0, ptr noundef %1, ptr noundef %2, ptr noundef %3) local_unnamed_addr #0 {
  %5 = ptrtoint ptr %3 to i64
  %6 = and i64 %5, 1
  %.not11.i = icmp eq i64 %6, 0
  br i1 %.not11.i, label %.lr.ph.i, label %.loopexit13

.lr.ph.i:                                         ; preds = %4
  %7 = getelementptr inbounds nuw i8, ptr %0, i64 40
  %8 = load ptr, ptr %7, align 8, !tbaa !3
  %9 = ptrtoint ptr %8 to i64
  %10 = xor i64 %9, 1
  %11 = inttoptr i64 %10 to ptr
  br label %12

12:                                               ; preds = %tailrecurse.i, %.lr.ph.i
  %.tr1012.i = phi ptr [ %3, %.lr.ph.i ], [ %23, %tailrecurse.i ]
  %13 = icmp eq ptr %.tr1012.i, %8
  br i1 %13, label %bddCheckPositiveCube.exit.preheader, label %15

bddCheckPositiveCube.exit.preheader:              ; preds = %12
  %14 = getelementptr inbounds nuw i8, ptr %0, i64 448
  br label %bddCheckPositiveCube.exit

15:                                               ; preds = %12
  %16 = load i32, ptr %.tr1012.i, align 8, !tbaa !24
  %17 = icmp eq i32 %16, 2147483647
  br i1 %17, label %.loopexit13, label %18

18:                                               ; preds = %15
  %19 = getelementptr inbounds nuw i8, ptr %.tr1012.i, i64 24
  %20 = load ptr, ptr %19, align 8, !tbaa !25
  %21 = icmp eq ptr %20, %11
  br i1 %21, label %tailrecurse.i, label %.loopexit13

tailrecurse.i:                                    ; preds = %18
  %22 = getelementptr inbounds nuw i8, ptr %.tr1012.i, i64 16
  %23 = load ptr, ptr %22, align 8, !tbaa !25
  %24 = ptrtoint ptr %23 to i64
  %25 = and i64 %24, 1
  %.not.i = icmp eq i64 %25, 0
  br i1 %.not.i, label %12, label %.loopexit13

.loopexit13:                                      ; preds = %18, %15, %tailrecurse.i, %4
  %26 = getelementptr inbounds nuw i8, ptr %0, i64 616
  %27 = load ptr, ptr %26, align 8, !tbaa !26
  %28 = tail call i64 @fwrite(ptr nonnull @.str, i64 40, i64 1, ptr %27)
  %29 = getelementptr inbounds nuw i8, ptr %0, i64 624
  store i32 4, ptr %29, align 8, !tbaa !27
  br label %.loopexit

bddCheckPositiveCube.exit:                        ; preds = %bddCheckPositiveCube.exit.preheader, %bddCheckPositiveCube.exit
  store i32 0, ptr %14, align 8, !tbaa !28
  %30 = tail call ptr @cuddBddXorExistAbstractRecur(ptr noundef %0, ptr noundef %1, ptr noundef %2, ptr noundef %3)
  %31 = load i32, ptr %14, align 8, !tbaa !28
  %32 = icmp eq i32 %31, 1
  br i1 %32, label %bddCheckPositiveCube.exit, label %.loopexit, !llvm.loop !37

.loopexit:                                        ; preds = %bddCheckPositiveCube.exit, %.loopexit13
  %.0 = phi ptr [ null, %.loopexit13 ], [ %30, %bddCheckPositiveCube.exit ]
  ret ptr %.0
}